target datalayout = "e-m:e-p270:32:32-p271:32:32-p272:64:64-i64:64-i128:128-f80:128-n8:16:32:64-S128"
target triple = "x86_64-pc-linux-gnu"

%struct.JsonLexContext = type { ptr, i64, i32, ptr, ptr, ptr, i8, i32, i32, i32, i32, ptr, ptr, ptr, i8, ptr, ptr }
%struct.JHashState = type { ptr, ptr, ptr, ptr, ptr, i32 }

; Function Attrs: nounwind uwtable
define internal i32 @hash_object_field_start(ptr noundef %0, ptr noundef %1, i1 noundef zeroext %2) #0 {
  %4 = alloca i32, align 4
  %5 = alloca ptr, align 8
  %6 = alloca ptr, align 8
  %7 = alloca i8, align 1
  %8 = alloca ptr, align 8
  %9 = alloca i32, align 4
  store ptr %0, ptr %5, align 8
  store ptr %1, ptr %6, align 8
  %10 = zext i1 %2 to i8
  store i8 %10, ptr %7, align 1
  call void @llvm.lifetime.start.p0(i64 8, ptr %8) #10
  %11 = load ptr, ptr %5, align 8
  store ptr %11, ptr %8, align 8
  %12 = load ptr, ptr %8, align 8
  %13 = getelementptr inbounds nuw %struct.JHashState, ptr %12, i32 0, i32 0
  %14 = load ptr, ptr %13, align 8
  %15 = getelementptr inbounds nuw %struct.JsonLexContext, ptr %14, i32 0, i32 8
  %16 = load i32, ptr %15, align 8
  %17 = icmp sgt i32 %16, 1
  br i1 %17, label %18, label %19

18:                                               ; preds = %3
  store i32 0, ptr %4, align 4
  store i32 1, ptr %9, align 4
  br label %52

19:                                               ; preds = %3
  %20 = load ptr, ptr %8, align 8
  %21 = getelementptr inbounds nuw %struct.JHashState, ptr %20, i32 0, i32 0
  %22 = load ptr, ptr %21, align 8
  %23 = getelementptr inbounds nuw %struct.JsonLexContext, ptr %22, i32 0, i32 7
  %24 = load i32, ptr %23, align 4
  %25 = load ptr, ptr %8, align 8
  %26 = getelementptr inbounds nuw %struct.JHashState, ptr %25, i32 0, i32 5
  store i32 %24, ptr %26, align 8
  %27 = load ptr, ptr %8, align 8
  %28 = getelementptr inbounds nuw %struct.JHashState, ptr %27, i32 0, i32 0
  %29 = load ptr, ptr %28, align 8
  %30 = getelementptr inbounds nuw %struct.JsonLexContext, ptr %29, i32 0, i32 7
  %31 = load i32, ptr %30, align 4
  %32 = icmp eq i32 %31, 5
  br i1 %32, label %40, label %33

33:                                               ; preds = %19
  %34 = load ptr, ptr %8, align 8
  %35 = getelementptr inbounds nuw %struct.JHashState, ptr %34, i32 0, i32 0
  %36 = load ptr, ptr %35, align 8
  %37 = getelementptr inbounds nuw %struct.JsonLexContext, ptr %36, i32 0, i32 7
  %38 = load i32, ptr %37, align 4
  %39 = icmp eq i32 %38, 3
  br i1 %39, label %40, label %48

40:                                               ; preds = %33, %19
  %41 = load ptr, ptr %8, align 8
  %42 = getelementptr inbounds nuw %struct.JHashState, ptr %41, i32 0, i32 0
  %43 = load ptr, ptr %42, align 8
  %44 = getelementptr inbounds nuw %struct.JsonLexContext, ptr %43, i32 0, i32 3
  %45 = load ptr, ptr %44, align 8
  %46 = load ptr, ptr %8, align 8
  %47 = getelementptr inbounds nuw %struct.JHashState, ptr %46, i32 0, i32 4
  store ptr %45, ptr %47, align 8
  br label %51

48:                                               ; preds = %33
  %49 = load ptr, ptr %8, align 8
  %50 = getelementptr inbounds nuw %struct.JHashState, ptr %49, i32 0, i32 4
  store ptr null, ptr %50, align 8
  br label %51

51:                                               ; preds = %48, %40
  store i32 0, ptr %4, align 4
  store i32 1, ptr %9, align 4
  br label %52

52:                                               ; preds = %51, %18
  call void @llvm.lifetime.end.p0(i64 8, ptr %8) #10
  %53 = load i32, ptr %4, align 4
  ret i32 %53
}