; Function Attrs: mustprogress nofree norecurse nosync nounwind willreturn memory(read, argmem: readwrite, inaccessiblemem: none) uwtable
define internal noundef i32 @hash_object_field_start(ptr noundef captures(none) %0, ptr readnone captures(none) %1, i1 zeroext %2) #6 {
  %4 = load ptr, ptr %0, align 8
  %5 = getelementptr inbounds nuw i8, ptr %4, i64 56
  %6 = load i32, ptr %5, align 8
  %7 = icmp sgt i32 %6, 1
  br i1 %7, label %16, label %8

8:                                                ; preds = %3
  %9 = getelementptr inbounds nuw i8, ptr %4, i64 52
  %10 = load i32, ptr %9, align 4
  %11 = getelementptr inbounds nuw i8, ptr %0, i64 40
  store i32 %10, ptr %11, align 8
  switch i32 %10, label %.sink.split [
    i32 5, label %12
    i32 3, label %12
  ]

12:                                               ; preds = %8, %8
  %13 = getelementptr inbounds nuw i8, ptr %4, i64 24
  %14 = load ptr, ptr %13, align 8
  br label %.sink.split

.sink.split:                                      ; preds = %8, %12
  %.sink = phi ptr [ %14, %12 ], [ null, %8 ]
  %15 = getelementptr inbounds nuw i8, ptr %0, i64 32
  store ptr %.sink, ptr %15, align 8
  br label %16

16:                                               ; preds = %.sink.split, %3
  ret i32 0
}